; Function Attrs: nounwind uwtable
define internal range(i32 0, 23) i32 @tcache_flush_ctl(ptr noundef %0, ptr readnone captures(none) %1, i64 %2, ptr noundef readnone captures(address_is_null) %3, ptr noundef readnone captures(address_is_null) %4, ptr noundef readonly captures(address_is_null) %5, i64 noundef %6) #0 {
  %8 = icmp ne ptr %3, null
  %9 = icmp ne ptr %4, null
  %or.cond = or i1 %8, %9
  br i1 %or.cond, label %15, label %10

10:                                               ; preds = %7
  %11 = icmp eq ptr %5, null
  %12 = icmp ne i64 %6, 4
  %or.cond3 = or i1 %11, %12
  br i1 %or.cond3, label %15, label %13

13:                                               ; preds = %10
  %14 = load i32, ptr %5, align 4, !tbaa !88
  tail call void @duckdb_je_tcaches_flush(ptr noundef %0, i32 noundef %14) #14
  br label %15

15:                                               ; preds = %10, %7, %13
  %.0 = phi i32 [ 0, %13 ], [ 1, %7 ], [ 22, %10 ]
  ret i32 %.0
}